; Function Attrs: mustprogress uwtable
define dso_local void @_ZN4absl13cord_internal10CordRepCrc7DestroyEPS1_(ptr noundef %0) local_unnamed_addr #0 align 2 {
  %2 = getelementptr inbounds nuw i8, ptr %0, i64 16
  %3 = load ptr, ptr %2, align 8, !tbaa !13
  %.not = icmp eq ptr %3, null
  br i1 %.not, label %8, label %4

4:                                                ; preds = %1
  %5 = getelementptr inbounds nuw i8, ptr %3, i64 8
  %6 = atomicrmw sub ptr %5, i32 2 acq_rel, align 4
  %.not.i = icmp eq i32 %6, 2
  br i1 %.not.i, label %7, label %8, !prof !20

7:                                                ; preds = %4
  tail call void @_ZN4absl13cord_internal7CordRep7DestroyEPS1_(ptr noundef nonnull %3)
  br label %8

8:                                                ; preds = %7, %4, %1
  %9 = getelementptr inbounds nuw i8, ptr %0, i64 24
  tail call void @_ZN4absl12crc_internal12CrcCordStateD1Ev(ptr noundef nonnull align 8 dereferenceable(8) %9) #7
  tail call void @_ZdlPvm(ptr noundef nonnull %0, i64 noundef 32) #6
  ret void
}